target datalayout = "e-m:e-p270:32:32-p271:32:32-p272:64:64-i64:64-i128:128-f80:128-n8:16:32:64-S128"
target triple = "x86_64-pc-linux-gnu"

%struct.php_unserialize_data = type { ptr, ptr, ptr, ptr, ptr, i64, i64, %struct.var_entries }
%struct.var_entries = type { i64, ptr, [1018 x ptr] }

; Function Attrs: nounwind uwtable
define i32 @php_var_unserialize(ptr noundef %0, ptr noundef %1, ptr noundef %2, ptr noundef %3) #0 {
  %5 = alloca ptr, align 8
  %6 = alloca ptr, align 8
  %7 = alloca ptr, align 8
  %8 = alloca ptr, align 8
  %9 = alloca ptr, align 8
  %10 = alloca i64, align 8
  %11 = alloca i32, align 4
  %12 = alloca ptr, align 8
  %13 = alloca i64, align 8
  store ptr %0, ptr %5, align 8
  store ptr %1, ptr %6, align 8
  store ptr %2, ptr %7, align 8
  store ptr %3, ptr %8, align 8
  %14 = load ptr, ptr %8, align 8
  %15 = load ptr, ptr %14, align 8
  %16 = getelementptr inbounds %struct.php_unserialize_data, ptr %15, i32 0, i32 0
  %17 = load ptr, ptr %16, align 8
  store ptr %17, ptr %9, align 8
  %18 = load ptr, ptr %9, align 8
  %19 = icmp ne ptr %18, null
  br i1 %19, label %20, label %24

20:                                               ; preds = %4
  %21 = load ptr, ptr %9, align 8
  %22 = getelementptr inbounds %struct.var_entries, ptr %21, i32 0, i32 0
  %23 = load i64, ptr %22, align 8
  br label %25

24:                                               ; preds = %4
  br label %25

25:                                               ; preds = %24, %20
  %26 = phi i64 [ %23, %20 ], [ 0, %24 ]
  store i64 %26, ptr %10, align 8
  %27 = load ptr, ptr %5, align 8
  %28 = load ptr, ptr %6, align 8
  %29 = load ptr, ptr %7, align 8
  %30 = load ptr, ptr %8, align 8
  %31 = call i32 @php_var_unserialize_internal(ptr noundef %27, ptr noundef %28, ptr noundef %29, ptr noundef %30)
  store i32 %31, ptr %11, align 4
  %32 = load i32, ptr %11, align 4
  %33 = icmp ne i32 %32, 0
  br i1 %33, label %60, label %34

34:                                               ; preds = %25
  %35 = load ptr, ptr %9, align 8
  store ptr %35, ptr %12, align 8
  %36 = load i64, ptr %10, align 8
  store i64 %36, ptr %13, align 8
  br label %37

37:                                               ; preds = %55, %34
  %38 = load ptr, ptr %12, align 8
  %39 = icmp ne ptr %38, null
  br i1 %39, label %40, label %59

40:                                               ; preds = %37
  br label %41

41:                                               ; preds = %52, %40
  %42 = load i64, ptr %13, align 8
  %43 = load ptr, ptr %12, align 8
  %44 = getelementptr inbounds %struct.var_entries, ptr %43, i32 0, i32 0
  %45 = load i64, ptr %44, align 8
  %46 = icmp slt i64 %42, %45
  br i1 %46, label %47, label %55

47:                                               ; preds = %41
  %48 = load ptr, ptr %12, align 8
  %49 = getelementptr inbounds %struct.var_entries, ptr %48, i32 0, i32 2
  %50 = load i64, ptr %13, align 8
  %51 = getelementptr inbounds [1018 x ptr], ptr %49, i64 0, i64 %50
  store ptr null, ptr %51, align 8
  br label %52

52:                                               ; preds = %47
  %53 = load i64, ptr %13, align 8
  %54 = add nsw i64 %53, 1
  store i64 %54, ptr %13, align 8
  br label %41

55:                                               ; preds = %41
  %56 = load ptr, ptr %12, align 8
  %57 = getelementptr inbounds %struct.var_entries, ptr %56, i32 0, i32 1
  %58 = load ptr, ptr %57, align 8
  store ptr %58, ptr %12, align 8
  store i64 0, ptr %13, align 8
  br label %37

59:                                               ; preds = %37
  br label %60

60:                                               ; preds = %59, %25
  %61 = load i32, ptr %11, align 4
  ret i32 %61
}