; Function Attrs: nounwind uwtable
define noundef i32 @php_var_unserialize(ptr noundef %0, ptr noundef %1, ptr noundef %2, ptr noundef %3) local_unnamed_addr #0 {
  %5 = load ptr, ptr %3, align 8
  %6 = load ptr, ptr %5, align 8
  %.not = icmp eq ptr %6, null
  br i1 %.not, label %.thread, label %8

.thread:                                          ; preds = %4
  %7 = tail call fastcc i32 @php_var_unserialize_internal(ptr noundef %0, ptr noundef %1, ptr noundef %2, ptr noundef nonnull %3), !range !5
  br label %.loopexit

8:                                                ; preds = %4
  %9 = load i64, ptr %6, align 8
  %10 = tail call fastcc i32 @php_var_unserialize_internal(ptr noundef %0, ptr noundef %1, ptr noundef %2, ptr noundef nonnull %3), !range !5
  %.not19 = icmp ne i32 %10, 0
  %or.cond = or i1 %.not19, %.not
  br i1 %or.cond, label %.loopexit, label %.preheader

.preheader:                                       ; preds = %8, %._crit_edge
  %.025 = phi i64 [ 0, %._crit_edge ], [ %9, %8 ]
  %.01724 = phi ptr [ %20, %._crit_edge ], [ %6, %8 ]
  %11 = load i64, ptr %.01724, align 8
  %12 = icmp slt i64 %.025, %11
  br i1 %12, label %.lr.ph, label %._crit_edge

.lr.ph:                                           ; preds = %.preheader
  %13 = getelementptr inbounds i8, ptr %.01724, i64 16
  br label %14

14:                                               ; preds = %.lr.ph, %14
  %.122 = phi i64 [ %.025, %.lr.ph ], [ %16, %14 ]
  %15 = getelementptr inbounds [1018 x ptr], ptr %13, i64 0, i64 %.122
  store ptr null, ptr %15, align 8
  %16 = add nsw i64 %.122, 1
  %17 = load i64, ptr %.01724, align 8
  %18 = icmp slt i64 %16, %17
  br i1 %18, label %14, label %._crit_edge

._crit_edge:                                      ; preds = %14, %.preheader
  %19 = getelementptr inbounds i8, ptr %.01724, i64 8
  %20 = load ptr, ptr %19, align 8
  %.not20 = icmp eq ptr %20, null
  br i1 %.not20, label %.loopexit, label %.preheader

.loopexit:                                        ; preds = %._crit_edge, %.thread, %8
  %21 = phi i32 [ %7, %.thread ], [ %10, %8 ], [ %10, %._crit_edge ]
  ret i32 %21
}